
 Start  Stop   Length Name               Class

 00000H 01168H 01169H UDD                CODE
 01170H 01242H 000D3H DATES              CODE
 01250H 01354H 00105H ETC                CODE
 01360H 01973H 00614H CRT                CODE
 01980H 01BE9H 0026AH DOS                CODE
 01BF0H 039C5H 01DD6H EXITERR            CODE
 039D0H 04963H 00F94H SYSTEM             CODE
 04970H 04F23H 005B4H DATA               DATA
 04F30H 08F2FH 04000H STACK              STACK
 08F30H 08F30H 00000H HEAP               HEAP

  Address         Publics by Value

 0000:0004       A
 0000:0082       COPYFILE
 0000:03DC       SECONDSSINCE1980
 0000:083D       UPDATE
 0000:0944       FPC
 0000:097F       FPS
 0000:0CA8       @
 0117:0000       LEAP_YEAR
 0117:0057       ORDINAL_DAY
 0117:00C7       @
 0125:0000       SPLITFILEPATH
 0125:005A       UPCASESTR
 0125:00DB       @
 0136:0000       @
 0136:016B       TEXTMODE
 0136:0180       WINDOW
 0136:01C0       CLRSCR
 0136:01DA       CLREOL
 0136:01EE       INSLINE
 0136:01F3       DELLINE
 0136:0213       GOTOXY
 0136:023F       WHEREX
 0136:024B       WHEREY
 0136:0257       TEXTCOLOR
 0136:0271       TEXTBACKGROUND
 0136:0289       LOWVIDEO
 0136:028F       HIGHVIDEO
 0136:0295       NORMVIDEO
 0136:029C       DELAY
 0136:02C7       SOUND
 0136:02F4       NOSOUND
 0136:02FB       KEYPRESSED
 0136:030D       READKEY
 0136:032F       ASSIGNCRT
 0198:0000       GETFTIME
 0198:0027       SETFTIME
 0198:0046       FINDFIRST
 0198:0084       FINDNEXT
 0198:00C1       UNPACKTIME
 0198:0105       PACKTIME
 0198:013D       FEXPAND
 0198:0206       FSPLIT
 01BF:1DAF       @
 0497:0102       OVRCODELIST
 0497:0104       OVRHEAPSIZE
 0497:0106       OVRDEBUGPTR
 0497:010A       OVRHEAPORG
 0497:010C       OVRHEAPPTR
 0497:010E       OVRHEAPEND
 0497:0110       OVRLOADLIST
 0497:0112       OVRDOSHANDLE
 0497:0114       OVREMSHANDLE
 0497:0116       HEAPORG
 0497:011A       HEAPPTR
 0497:011E       HEAPEND
 0497:0122       FREELIST
 0497:0126       FREEZERO
 0497:012A       HEAPERROR
 0497:012E       EXITPROC
 0497:0132       EXITCODE
 0497:0134       ERRORADDR
 0497:0138       PREFIXSEG
 0497:013A       STACKLIMIT
 0497:013C       INOUTRES
 0497:013E       RANDSEED
 0497:0142       FILEMODE
 0497:0143       TEST8087
 0497:0144       ASK
 0497:0146       FS1
 0497:0246       FS2
 0497:0346       ANSI
 0497:0347       USEINSERT
 0497:0348       CAPSON
 0497:0349       PORTCHECK
 0497:034A       PORTNUM
 0497:034B       CARRIER
 0497:034C       CHECKBREAK
 0497:034D       CHECKEOF
 0497:034E       DIRECTVIDEO
 0497:034F       CHECKSNOW
 0497:0350       LASTMODE
 0497:0352       TEXTATTR
 0497:0354       WINDMIN
 0497:0356       WINDMAX
 0497:0360       DOSERROR
 0497:0366       INPUT
 0497:0466       OUTPUT
 0497:0566       SAVEINT00
 0497:056A       SAVEINT02
 0497:056E       SAVEINT1B
 0497:0572       SAVEINT21
 0497:0576       SAVEINT23
 0497:057A       SAVEINT24
 0497:057E       SAVEINT34
 0497:0582       SAVEINT35
 0497:0586       SAVEINT36
 0497:058A       SAVEINT37
 0497:058E       SAVEINT38
 0497:0592       SAVEINT39
 0497:0596       SAVEINT3A
 0497:059A       SAVEINT3B
 0497:059E       SAVEINT3C
 0497:05A2       SAVEINT3D
 0497:05A6       SAVEINT3E
 0497:05AA       SAVEINT3F
 0497:05AE       SAVEINT75

Line numbers for UDD(UDD.PAS) segment UDD

    10 0000:0004    11 0000:0012    12 0000:002E    13 0000:0043
    25 0000:0082    26 0000:00B9    28 0000:00BE    29 0000:00CF
    31 0000:00E3    34 0000:00E8    35 0000:00F9    38 0000:0108
    40 0000:0111    41 0000:0120    42 0000:0128    43 0000:015D
    44 0000:0162    48 0000:0165    49 0000:0176    52 0000:018E
    54 0000:01BA    55 0000:01DC    56 0000:01FA    57 0000:0202
    58 0000:0230    59 0000:024E    60 0000:0256    61 0000:0284
    64 0000:0291    65 0000:02B3    67 0000:02E4    68 0000:031A
    69 0000:034B    71 0000:0381    72 0000:0392    74 0000:03A5
    75 0000:03B5    77 0000:03C5    79 0000:03D6    82 0000:03DC
    84 0000:03FD    88 0000:044E   100 0000:0491   101 0000:04B4
   102 0000:04C2   103 0000:04E6   104 0000:050C   107 0000:0535
   110 0000:0563   112 0000:056D   113 0000:0591   114 0000:05B9
   115 0000:05DD   117 0000:0610   118 0000:0651   119 0000:0660
   122 0000:0663   124 0000:0675   125 0000:0685   126 0000:06A1
   129 0000:06A4   130 0000:06B5   132 0000:06C8   135 0000:06EE
   136 0000:0712   137 0000:073A   138 0000:075E   140 0000:0791
   142 0000:0798   143 0000:07E0   145 0000:07E2   146 0000:0823
   151 0000:0832   155 0000:083D   156 0000:0874   157 0000:0894
   159 0000:08B4   161 0000:08C9   163 0000:08D0   164 0000:08E2
   165 0000:08ED   167 0000:08EF   169 0000:08F8   172 0000:093E
   175 0000:0944   176 0000:094E   177 0000:097B   182 0000:097F
   183 0000:09A2   184 0000:09D6   194 0000:0CA8   196 0000:0CD0
   198 0000:0CD5   199 0000:0CE4   200 0000:0CEC   202 0000:0CF4
   204 0000:0D00   205 0000:0D0F   206 0000:0D31   207 0000:0D40
   208 0000:0D48   209 0000:0D57   210 0000:0D73   211 0000:0D8F
   212 0000:0D9E   213 0000:0DBA   214 0000:0DD6   215 0000:0DE5
   216 0000:0E01   217 0000:0E10   218 0000:0E34   219 0000:0E3C
   220 0000:0E6E   221 0000:0E76   222 0000:0E92   223 0000:0EAE
   224 0000:0EBD   225 0000:0EC5   226 0000:0EE1   227 0000:0EFD
   232 0000:0F04   233 0000:0F37   236 0000:0F6A   238 0000:0FA7
   239 0000:0FB6   240 0000:0FDA   241 0000:0FFE   242 0000:1022
   243 0000:1046   246 0000:106A   249 0000:1077   250 0000:108F
   252 0000:109E   253 0000:10C2   254 0000:10E6   255 0000:110A
   256 0000:112E   259 0000:1152   261 0000:115F

Line numbers for DATES(DATES.PAS) segment DATES

   132 0117:0000   133 0117:000E   134 0117:001F   135 0117:0034
   136 0117:0049   137 0117:004E   142 0117:0057   143 0117:0065
   144 0117:006B   146 0117:0076   147 0117:007E   148 0117:0092
   149 0117:0099   151 0117:00B2   152 0117:00BE   245 0117:00C7
   246 0117:00D1

Line numbers for ETC(ETC.PAS) segment ETC

   611 0125:0000   612 0125:0023   613 0125:0040   614 0125:0054
   918 0125:005A   919 0125:007D   920 0125:00C1   921 0125:00D5
  1475 0125:00DB  1476 0125:00E5  1477 0125:00EA  1478 0125:00EF
  1479 0125:00F4  1480 0125:00F9  1481 0125:00FE  1482 0125:0103

Line numbers for EXITERR(EXITERR.PAS) segment EXITERR

    12 01BF:10A8    14 01BF:10B7    16 01BF:10CA    17 01BF:10CD
    18 01BF:10FD    19 01BF:1118    20 01BF:1133    21 01BF:114E
    22 01BF:1169    23 01BF:1199    24 01BF:11C9    25 01BF:11F9
    26 01BF:1229    27 01BF:1259    28 01BF:1289    29 01BF:12B9
    30 01BF:12E9    31 01BF:1304    32 01BF:131F    33 01BF:133A
    35 01BF:1355    36 01BF:1370    37 01BF:138B    39 01BF:13A6
    40 01BF:13C1    41 01BF:13DC    43 01BF:13F7    44 01BF:1412
    45 01BF:142D    46 01BF:1448    47 01BF:1463    48 01BF:147E
    49 01BF:1499    50 01BF:14B4    51 01BF:14CF    52 01BF:14EA
    53 01BF:1505    54 01BF:1520    55 01BF:153B    56 01BF:1556
    57 01BF:1571    58 01BF:158C    59 01BF:15A7    60 01BF:15C2
    61 01BF:15DD    62 01BF:15F8    63 01BF:1613    64 01BF:162E
    65 01BF:1649    66 01BF:1664    67 01BF:167F    68 01BF:169A
    69 01BF:16B5    70 01BF:16D0    71 01BF:16EB    72 01BF:1706
    73 01BF:1721    74 01BF:173C    75 01BF:1757    76 01BF:1772
    77 01BF:178D    78 01BF:17A8    79 01BF:17C3    80 01BF:17DE
    81 01BF:17F9    82 01BF:1814    83 01BF:182F    84 01BF:184A
    85 01BF:1865    86 01BF:1880    88 01BF:189B    89 01BF:18B6
    90 01BF:18D1    91 01BF:1901    92 01BF:191C    93 01BF:194C
    94 01BF:197C    97 01BF:1997    98 01BF:19B2    99 01BF:19CD
   100 01BF:19E8   101 01BF:1A18   102 01BF:1A48   103 01BF:1A63
   104 01BF:1A7E   105 01BF:1A99   106 01BF:1AB4   107 01BF:1ACF
   108 01BF:1AEA   109 01BF:1B05   112 01BF:1B20   113 01BF:1B3B
   114 01BF:1B6B   115 01BF:1B9B   116 01BF:1BCB   117 01BF:1BFB
   118 01BF:1C2B   119 01BF:1C46   120 01BF:1C76   121 01BF:1CA6
   122 01BF:1CC1   123 01BF:1CDC   124 01BF:1CF6   125 01BF:1D10
   126 01BF:1D2A   131 01BF:1D44   134 01BF:1D5C   139 01BF:1D62
   140 01BF:1D71   141 01BF:1D7F   142 01BF:1DAB   144 01BF:1DAF
   145 01BF:1DB9   146 01BF:1DC7   147 01BF:1DD4

Program entry point at 0000:0CA8
